target datalayout = "e-m:e-p270:32:32-p271:32:32-p272:64:64-i64:64-i128:128-f80:128-n8:16:32:64-S128"
target triple = "x86_64-unknown-linux-gnu"

%"class.icu_75::TimeUnit" = type { %"class.icu_75::MeasureUnit.base", i32 }
%"class.icu_75::MeasureUnit.base" = type <{ %"class.icu_75::UObject", ptr, i16, i8 }>
%"class.icu_75::UObject" = type { ptr }

; Function Attrs: mustprogress uwtable
define void @_ZN6icu_758TimeUnitC2ERKS0_(ptr noundef nonnull align 8 dereferenceable(24) %this, ptr noundef nonnull align 8 dereferenceable(24) %other) unnamed_addr #1 align 2 {
entry:
  %this.addr = alloca ptr, align 8
  %other.addr = alloca ptr, align 8
  store ptr %this, ptr %this.addr, align 8
  store ptr %other, ptr %other.addr, align 8
  %this1 = load ptr, ptr %this.addr, align 8
  %0 = load ptr, ptr %other.addr, align 8
  call void @_ZN6icu_7511MeasureUnitC2ERKS0_(ptr noundef nonnull align 8 dereferenceable(19) %this1, ptr noundef nonnull align 8 dereferenceable(19) %0)
  store ptr getelementptr inbounds ({ [7 x ptr] }, ptr @_ZTVN6icu_758TimeUnitE, i32 0, i32 0, i32 2), ptr %this1, align 8
  %fTimeUnitField = getelementptr inbounds %"class.icu_75::TimeUnit", ptr %this1, i32 0, i32 1
  %1 = load ptr, ptr %other.addr, align 8
  %fTimeUnitField2 = getelementptr inbounds %"class.icu_75::TimeUnit", ptr %1, i32 0, i32 1
  %2 = load i32, ptr %fTimeUnitField2, align 4
  store i32 %2, ptr %fTimeUnitField, align 4
  ret void
}