; Function Attrs: mustprogress uwtable
define void @_ZN6icu_758TimeUnitC2ERKS0_(ptr noundef nonnull align 8 dereferenceable(24) %this, ptr noundef nonnull align 8 dereferenceable(24) %other) unnamed_addr #1 align 2 {
entry:
  tail call void @_ZN6icu_7511MeasureUnitC2ERKS0_(ptr noundef nonnull align 8 dereferenceable(19) %this, ptr noundef nonnull align 8 dereferenceable(19) %other)
  store ptr getelementptr inbounds ({ [7 x ptr] }, ptr @_ZTVN6icu_758TimeUnitE, i64 0, i32 0, i64 2), ptr %this, align 8
  %fTimeUnitField = getelementptr inbounds i8, ptr %this, i64 20
  %fTimeUnitField2 = getelementptr inbounds i8, ptr %other, i64 20
  %0 = load i32, ptr %fTimeUnitField2, align 4
  store i32 %0, ptr %fTimeUnitField, align 4
  ret void
}